target datalayout = "e-m:e-p270:32:32-p271:32:32-p272:64:64-i64:64-i128:128-f80:128-n8:16:32:64-S128"
target triple = "x86_64-pc-linux-gnu"

%struct.sockaddr_storage = type { i16, [118 x i8], i64 }
%struct.addrinfo = type { i32, i32, i32, i32, i32, ptr, ptr, ptr }

@.str = private unnamed_addr constant [2 x i8] c"0\00", align 1
@.str.1 = private unnamed_addr constant [3 x i8] c"%d\00", align 1
@.str.2 = private unnamed_addr constant [25 x i8] c"getaddrinfo(%s, %s): %s\0A\00", align 1
@.str.3 = private unnamed_addr constant [8 x i8] c"unknown\00", align 1
@.str.5 = private unnamed_addr constant [2 x i8] c",\00", align 1

; Function Attrs: nounwind uwtable
define ptr @ff_ip_resolve_host(ptr noundef %0, ptr noundef %1, i32 noundef %2, i32 noundef %3, i32 noundef %4, i32 noundef %5) #0 {
  %7 = alloca ptr, align 8
  %8 = alloca ptr, align 8
  %9 = alloca i32, align 4
  %10 = alloca i32, align 4
  %11 = alloca i32, align 4
  %12 = alloca i32, align 4
  %13 = alloca %struct.addrinfo, align 8
  %14 = alloca ptr, align 8
  %15 = alloca i32, align 4
  %16 = alloca [16 x i8], align 16
  %17 = alloca ptr, align 8
  %18 = alloca ptr, align 8
  store ptr %0, ptr %7, align 8, !tbaa !30
  store ptr %1, ptr %8, align 8, !tbaa !28
  store i32 %2, ptr %9, align 4, !tbaa !14
  store i32 %3, ptr %10, align 4, !tbaa !14
  store i32 %4, ptr %11, align 4, !tbaa !14
  store i32 %5, ptr %12, align 4, !tbaa !14
  call void @llvm.lifetime.start.p0(i64 48, ptr %13) #7
  call void @llvm.memset.p0.i64(ptr align 8 %13, i8 0, i64 48, i1 false)
  call void @llvm.lifetime.start.p0(i64 8, ptr %14) #7
  store ptr null, ptr %14, align 8, !tbaa !31
  call void @llvm.lifetime.start.p0(i64 4, ptr %15) #7
  call void @llvm.lifetime.start.p0(i64 16, ptr %16) #7
  call void @llvm.lifetime.start.p0(i64 8, ptr %17) #7
  store ptr null, ptr %17, align 8, !tbaa !28
  call void @llvm.lifetime.start.p0(i64 8, ptr %18) #7
  store ptr @.str, ptr %18, align 8, !tbaa !28
  %19 = load i32, ptr %9, align 4, !tbaa !14
  %20 = icmp sgt i32 %19, 0
  br i1 %20, label %21, label %26

21:                                               ; preds = %6
  %22 = getelementptr inbounds [16 x i8], ptr %16, i64 0, i64 0
  %23 = load i32, ptr %9, align 4, !tbaa !14
  %24 = call i32 (ptr, i64, ptr, ...) @snprintf(ptr noundef %22, i64 noundef 16, ptr noundef @.str.1, i32 noundef %23) #7
  %25 = getelementptr inbounds [16 x i8], ptr %16, i64 0, i64 0
  store ptr %25, ptr %18, align 8, !tbaa !28
  br label %26

26:                                               ; preds = %21, %6
  %27 = load ptr, ptr %8, align 8, !tbaa !28
  %28 = icmp ne ptr %27, null
  br i1 %28, label %29, label %43

29:                                               ; preds = %26
  %30 = load ptr, ptr %8, align 8, !tbaa !28
  %31 = getelementptr inbounds i8, ptr %30, i64 0
  %32 = load i8, ptr %31, align 1, !tbaa !33
  %33 = sext i8 %32 to i32
  %34 = icmp ne i32 %33, 0
  br i1 %34, label %35, label %43

35:                                               ; preds = %29
  %36 = load ptr, ptr %8, align 8, !tbaa !28
  %37 = getelementptr inbounds i8, ptr %36, i64 0
  %38 = load i8, ptr %37, align 1, !tbaa !33
  %39 = sext i8 %38 to i32
  %40 = icmp ne i32 %39, 63
  br i1 %40, label %41, label %43

41:                                               ; preds = %35
  %42 = load ptr, ptr %8, align 8, !tbaa !28
  store ptr %42, ptr %17, align 8, !tbaa !28
  br label %43

43:                                               ; preds = %41, %35, %29, %26
  %44 = load i32, ptr %10, align 4, !tbaa !14
  %45 = getelementptr inbounds nuw %struct.addrinfo, ptr %13, i32 0, i32 2
  store i32 %44, ptr %45, align 8, !tbaa !34
  %46 = load i32, ptr %11, align 4, !tbaa !14
  %47 = getelementptr inbounds nuw %struct.addrinfo, ptr %13, i32 0, i32 1
  store i32 %46, ptr %47, align 4, !tbaa !37
  %48 = load i32, ptr %12, align 4, !tbaa !14
  %49 = getelementptr inbounds nuw %struct.addrinfo, ptr %13, i32 0, i32 0
  store i32 %48, ptr %49, align 8, !tbaa !38
  %50 = load ptr, ptr %17, align 8, !tbaa !28
  %51 = load ptr, ptr %18, align 8, !tbaa !28
  %52 = call i32 @getaddrinfo(ptr noundef %50, ptr noundef %51, ptr noundef %13, ptr noundef %14)
  store i32 %52, ptr %15, align 4, !tbaa !14
  %53 = icmp ne i32 %52, 0
  br i1 %53, label %54, label %66

54:                                               ; preds = %43
  store ptr null, ptr %14, align 8, !tbaa !31
  %55 = load ptr, ptr %7, align 8, !tbaa !30
  %56 = load ptr, ptr %17, align 8, !tbaa !28
  %57 = icmp ne ptr %56, null
  br i1 %57, label %58, label %60

58:                                               ; preds = %54
  %59 = load ptr, ptr %17, align 8, !tbaa !28
  br label %61

60:                                               ; preds = %54
  br label %61

61:                                               ; preds = %60, %58
  %62 = phi ptr [ %59, %58 ], [ @.str.3, %60 ]
  %63 = load ptr, ptr %18, align 8, !tbaa !28
  %64 = load i32, ptr %15, align 4, !tbaa !14
  %65 = call ptr @gai_strerror(i32 noundef %64) #7
  call void (ptr, i32, ptr, ...) @av_log(ptr noundef %55, i32 noundef 16, ptr noundef @.str.2, ptr noundef %62, ptr noundef %63, ptr noundef %65)
  br label %66

66:                                               ; preds = %61, %43
  %67 = load ptr, ptr %14, align 8, !tbaa !31
  call void @llvm.lifetime.end.p0(i64 8, ptr %18) #7
  call void @llvm.lifetime.end.p0(i64 8, ptr %17) #7
  call void @llvm.lifetime.end.p0(i64 16, ptr %16) #7
  call void @llvm.lifetime.end.p0(i64 4, ptr %15) #7
  call void @llvm.lifetime.end.p0(i64 8, ptr %14) #7
  call void @llvm.lifetime.end.p0(i64 48, ptr %13) #7
  ret ptr %67
}

; Function Attrs: nounwind uwtable
define internal i32 @ip_parse_addr_list(ptr noundef %0, ptr noundef %1, ptr noundef %2, ptr noundef %3) #0 {
  %5 = alloca i32, align 4
  %6 = alloca ptr, align 8
  %7 = alloca ptr, align 8
  %8 = alloca ptr, align 8
  %9 = alloca ptr, align 8
  %10 = alloca ptr, align 8
  %11 = alloca ptr, align 8
  %12 = alloca i32, align 4
  %13 = alloca %struct.sockaddr_storage, align 8
  store ptr %0, ptr %6, align 8, !tbaa !30
  store ptr %1, ptr %7, align 8, !tbaa !28
  store ptr %2, ptr %8, align 8, !tbaa !39
  store ptr %3, ptr %9, align 8, !tbaa !42
  call void @llvm.lifetime.start.p0(i64 8, ptr %10) #7
  store ptr null, ptr %10, align 8, !tbaa !31
  br label %14

14:                                               ; preds = %67, %4
  %15 = load ptr, ptr %7, align 8, !tbaa !28
  %16 = icmp ne ptr %15, null
  br i1 %16, label %17, label %23

17:                                               ; preds = %14
  %18 = load ptr, ptr %7, align 8, !tbaa !28
  %19 = getelementptr inbounds i8, ptr %18, i64 0
  %20 = load i8, ptr %19, align 1, !tbaa !33
  %21 = sext i8 %20 to i32
  %22 = icmp ne i32 %21, 0
  br label %23

23:                                               ; preds = %17, %14
  %24 = phi i1 [ false, %14 ], [ %22, %17 ]
  br i1 %24, label %25, label %68

25:                                               ; preds = %23
  call void @llvm.lifetime.start.p0(i64 8, ptr %11) #7
  %26 = call ptr @av_get_token(ptr noundef %7, ptr noundef @.str.5)
  store ptr %26, ptr %11, align 8, !tbaa !28
  %27 = load ptr, ptr %11, align 8, !tbaa !28
  %28 = icmp ne ptr %27, null
  br i1 %28, label %30, label %29

29:                                               ; preds = %25
  store i32 -12, ptr %5, align 4
  store i32 1, ptr %12, align 4
  br label %65

30:                                               ; preds = %25
  %31 = load ptr, ptr %6, align 8, !tbaa !30
  %32 = load ptr, ptr %11, align 8, !tbaa !28
  %33 = call ptr @ff_ip_resolve_host(ptr noundef %31, ptr noundef %32, i32 noundef 0, i32 noundef 2, i32 noundef 0, i32 noundef 0)
  store ptr %33, ptr %10, align 8, !tbaa !31
  call void @av_freep(ptr noundef %11)
  %34 = load ptr, ptr %10, align 8, !tbaa !31
  %35 = icmp ne ptr %34, null
  br i1 %35, label %36, label %56

36:                                               ; preds = %30
  call void @llvm.lifetime.start.p0(i64 128, ptr %13) #7
  call void @llvm.memset.p0.i64(ptr align 8 %13, i8 0, i64 128, i1 false)
  %37 = load ptr, ptr %10, align 8, !tbaa !31
  %38 = getelementptr inbounds nuw %struct.addrinfo, ptr %37, i32 0, i32 5
  %39 = load ptr, ptr %38, align 8, !tbaa !44
  %40 = load ptr, ptr %10, align 8, !tbaa !31
  %41 = getelementptr inbounds nuw %struct.addrinfo, ptr %40, i32 0, i32 4
  %42 = load i32, ptr %41, align 8, !tbaa !45
  %43 = zext i32 %42 to i64
  call void @llvm.memcpy.p0.p0.i64(ptr align 8 %13, ptr align 2 %39, i64 %43, i1 false)
  %44 = load ptr, ptr %10, align 8, !tbaa !31
  call void @freeaddrinfo(ptr noundef %44) #7
  %45 = load ptr, ptr %8, align 8, !tbaa !39
  %46 = load ptr, ptr %9, align 8, !tbaa !42
  %47 = call ptr @av_dynarray2_add(ptr noundef %45, ptr noundef %46, i64 noundef 128, ptr noundef %13)
  %48 = load ptr, ptr %8, align 8, !tbaa !39
  %49 = load ptr, ptr %48, align 8, !tbaa !4
  %50 = icmp ne ptr %49, null
  br i1 %50, label %52, label %51

51:                                               ; preds = %36
  store i32 -12, ptr %5, align 4
  store i32 1, ptr %12, align 4
  br label %53

52:                                               ; preds = %36
  store i32 0, ptr %12, align 4
  br label %53

53:                                               ; preds = %52, %51
  call void @llvm.lifetime.end.p0(i64 128, ptr %13) #7
  %54 = load i32, ptr %12, align 4
  switch i32 %54, label %65 [
    i32 0, label %55
  ]

55:                                               ; preds = %53
  br label %57

56:                                               ; preds = %30
  store i32 -22, ptr %5, align 4
  store i32 1, ptr %12, align 4
  br label %65

57:                                               ; preds = %55
  %58 = load ptr, ptr %7, align 8, !tbaa !28
  %59 = load i8, ptr %58, align 1, !tbaa !33
  %60 = icmp ne i8 %59, 0
  br i1 %60, label %61, label %64

61:                                               ; preds = %57
  %62 = load ptr, ptr %7, align 8, !tbaa !28
  %63 = getelementptr inbounds nuw i8, ptr %62, i32 1
  store ptr %63, ptr %7, align 8, !tbaa !28
  br label %64

64:                                               ; preds = %61, %57
  store i32 0, ptr %12, align 4
  br label %65

65:                                               ; preds = %64, %56, %53, %29
  call void @llvm.lifetime.end.p0(i64 8, ptr %11) #7
  %66 = load i32, ptr %12, align 4
  switch i32 %66, label %69 [
    i32 0, label %67
  ]

67:                                               ; preds = %65
  br label %14, !llvm.loop !46

68:                                               ; preds = %23
  store i32 0, ptr %5, align 4
  store i32 1, ptr %12, align 4
  br label %69

69:                                               ; preds = %68, %65
  call void @llvm.lifetime.end.p0(i64 8, ptr %10) #7
  %70 = load i32, ptr %5, align 4
  ret i32 %70
}