; Function Attrs: nounwind uwtable
define internal fastcc range(i32 -22, 1) i32 @ip_parse_addr_list(ptr noundef %0, ptr noundef %1, ptr noundef %2, ptr noundef %3) unnamed_addr #2 {
  %5 = alloca %struct.addrinfo, align 8
  %6 = alloca ptr, align 8
  %7 = alloca ptr, align 8
  %8 = alloca ptr, align 8
  %9 = alloca %struct.sockaddr_storage, align 8
  store ptr %1, ptr %7, align 8, !tbaa !33
  %.not23 = icmp eq ptr %1, null
  br i1 %.not23, label %.critedge, label %.lr.ph

.lr.ph:                                           ; preds = %4
  %10 = getelementptr inbounds nuw i8, ptr %5, i64 8
  %11 = getelementptr inbounds nuw i8, ptr %5, i64 4
  %12 = load i8, ptr %1, align 1, !tbaa !26
  %.not1626 = icmp eq i8 %12, 0
  br i1 %.not1626, label %.critedge, label %.lr.ph27

thread-pre-split:                                 ; preds = %35, %32
  %.pr = phi ptr [ %36, %35 ], [ %33, %32 ]
  call void @llvm.lifetime.end.p0(i64 8, ptr nonnull %8) #9
  %13 = load i8, ptr %.pr, align 1, !tbaa !26
  %.not16 = icmp eq i8 %13, 0
  br i1 %.not16, label %.critedge, label %.lr.ph27

.lr.ph27:                                         ; preds = %.lr.ph, %thread-pre-split
  call void @llvm.lifetime.start.p0(i64 8, ptr nonnull %8) #9
  %14 = call ptr @av_get_token(ptr noundef nonnull %7, ptr noundef nonnull @.str.5) #9
  store ptr %14, ptr %8, align 8, !tbaa !33
  %.not17 = icmp eq ptr %14, null
  br i1 %.not17, label %.thread, label %15

15:                                               ; preds = %.lr.ph27
  call void @llvm.lifetime.start.p0(i64 48, ptr nonnull %5) #9
  call void @llvm.memset.p0.i64(ptr noundef nonnull align 8 dereferenceable(40) %10, i8 0, i64 40, i1 false)
  call void @llvm.lifetime.start.p0(i64 8, ptr nonnull %6) #9
  store ptr null, ptr %6, align 8, !tbaa !24
  %16 = load i8, ptr %14, align 1, !tbaa !26
  switch i8 %16, label %17 [
    i8 0, label %18
    i8 63, label %18
  ]

17:                                               ; preds = %15
  br label %18

18:                                               ; preds = %17, %15, %15
  %.015.i = phi ptr [ %14, %17 ], [ null, %15 ], [ null, %15 ]
  store i32 2, ptr %10, align 8, !tbaa !27
  store i32 0, ptr %11, align 4, !tbaa !31
  store i32 0, ptr %5, align 8, !tbaa !32
  %19 = call i32 @getaddrinfo(ptr noundef %.015.i, ptr noundef nonnull @.str, ptr noundef nonnull %5, ptr noundef nonnull %6) #9
  %.not22.i = icmp eq i32 %19, 0
  br i1 %.not22.i, label %ff_ip_resolve_host.exit, label %20

20:                                               ; preds = %18
  store ptr null, ptr %6, align 8, !tbaa !24
  %.not23.i = icmp eq ptr %.015.i, null
  %21 = select i1 %.not23.i, ptr @.str.3, ptr %.015.i
  %22 = call ptr @gai_strerror(i32 noundef %19) #9
  call void (ptr, i32, ptr, ...) @av_log(ptr noundef %0, i32 noundef 16, ptr noundef nonnull @.str.2, ptr noundef nonnull %21, ptr noundef nonnull @.str, ptr noundef %22) #9
  br label %ff_ip_resolve_host.exit

ff_ip_resolve_host.exit:                          ; preds = %18, %20
  %23 = load ptr, ptr %6, align 8, !tbaa !24
  call void @llvm.lifetime.end.p0(i64 8, ptr nonnull %6) #9
  call void @llvm.lifetime.end.p0(i64 48, ptr nonnull %5) #9
  call void @av_freep(ptr noundef nonnull %8) #9
  %.not18 = icmp eq ptr %23, null
  br i1 %.not18, label %.thread, label %24

24:                                               ; preds = %ff_ip_resolve_host.exit
  call void @llvm.lifetime.start.p0(i64 128, ptr nonnull %9) #9
  call void @llvm.memset.p0.i64(ptr noundef nonnull align 8 dereferenceable(128) %9, i8 0, i64 128, i1 false)
  %25 = getelementptr inbounds nuw i8, ptr %23, i64 24
  %26 = load ptr, ptr %25, align 8, !tbaa !34
  %27 = getelementptr inbounds nuw i8, ptr %23, i64 16
  %28 = load i32, ptr %27, align 8, !tbaa !35
  %29 = zext i32 %28 to i64
  call void @llvm.memcpy.p0.p0.i64(ptr nonnull align 8 %9, ptr align 2 %26, i64 %29, i1 false)
  call void @freeaddrinfo(ptr noundef nonnull %23) #9
  %30 = call ptr @av_dynarray2_add(ptr noundef %2, ptr noundef %3, i64 noundef 128, ptr noundef nonnull %9) #9
  %31 = load ptr, ptr %2, align 8, !tbaa !36
  %.not19.not = icmp eq ptr %31, null
  call void @llvm.lifetime.end.p0(i64 128, ptr nonnull %9) #9
  br i1 %.not19.not, label %.thread, label %32

32:                                               ; preds = %24
  %33 = load ptr, ptr %7, align 8, !tbaa !33
  %34 = load i8, ptr %33, align 1, !tbaa !26
  %.not20 = icmp eq i8 %34, 0
  br i1 %.not20, label %thread-pre-split, label %35

35:                                               ; preds = %32
  %36 = getelementptr inbounds nuw i8, ptr %33, i64 1
  store ptr %36, ptr %7, align 8, !tbaa !33
  br label %thread-pre-split

.thread:                                          ; preds = %24, %.lr.ph27, %ff_ip_resolve_host.exit
  %.112.ph = phi i32 [ -22, %ff_ip_resolve_host.exit ], [ -12, %.lr.ph27 ], [ -12, %24 ]
  call void @llvm.lifetime.end.p0(i64 8, ptr nonnull %8) #9
  br label %.critedge

.critedge:                                        ; preds = %thread-pre-split, %.lr.ph, %4, %.thread
  %.3 = phi i32 [ %.112.ph, %.thread ], [ 0, %4 ], [ 0, %.lr.ph ], [ 0, %thread-pre-split ]
  ret i32 %.3
}